target datalayout = "e-m:e-p270:32:32-p271:32:32-p272:64:64-i64:64-i128:128-f80:128-n8:16:32:64-S128"
target triple = "x86_64-unknown-linux-gnu"

%"class.proxygen::SessionHolder" = type { %"class.proxygen::HTTPSessionBase::InfoCallback", %"class.boost::intrusive::list_member_hook", %"class.boost::intrusive::list_member_hook", ptr, ptr, ptr, %"class.std::chrono::time_point", double, i32, [4 x i8], %"class.proxygen::Endpoint", ptr }
%"class.proxygen::HTTPSessionBase::InfoCallback" = type { ptr }
%"class.boost::intrusive::list_member_hook" = type { %"class.boost::intrusive::generic_hook" }
%"class.boost::intrusive::generic_hook" = type { %"struct.boost::intrusive::list_node" }
%"struct.boost::intrusive::list_node" = type { ptr, ptr }
%"class.std::chrono::time_point" = type { %"class.std::chrono::duration" }
%"class.std::chrono::duration" = type { i64 }
%"class.proxygen::Endpoint" = type <{ %"class.std::__cxx11::basic_string", i16, [6 x i8], i64, i8, [7 x i8] }>
%"class.std::__cxx11::basic_string" = type { %"struct.std::__cxx11::basic_string<char>::_Alloc_hider", i64, %union.anon }
%"struct.std::__cxx11::basic_string<char>::_Alloc_hider" = type { ptr }
%union.anon = type { i64, [8 x i8] }
%"class.google::LogMessageFatal" = type { %"class.google::LogMessage" }
%"class.google::LogMessage" = type { ptr, ptr, %"struct.google::LogMessageTime" }
%"struct.google::LogMessageTime" = type { %struct.tm, i64, i32, i64 }
%struct.tm = type { i32, i32, i32, i32, i32, i32, i32, i32, i32, i64, ptr }
%"class.google::LogMessageVoidify" = type { i8 }

@.str = private unnamed_addr constant [140 x i8] c"generated/home/dtcxzyw/WorkSpace/Projects/compilers/llvm-opt-benchmark/bench/proxygen/proxygen/proxygen/lib/http/connpool/SessionHolder.cpp\00", align 1
@.str.3 = private unnamed_addr constant [45 x i8] c"Check failed: state_ == ListState::DETACHED \00", align 1
@.str.4 = private unnamed_addr constant [37 x i8] c"Check failed: !listHook.is_linked() \00", align 1
@.str.5 = private unnamed_addr constant [46 x i8] c"Check failed: !secondaryListHook.is_linked() \00", align 1

; Function Attrs: mustprogress nounwind uwtable
define linkonce_odr void @_ZN8proxygen15HTTPSessionBase12InfoCallbackD2Ev(ptr noundef nonnull align 8 dereferenceable(8) %this) unnamed_addr #5 comdat align 2 {
entry:
  %this.addr = alloca ptr, align 8
  store ptr %this, ptr %this.addr, align 8
  ret void
}

; Function Attrs: mustprogress nounwind uwtable
define linkonce_odr void @_ZN5boost9intrusive16list_member_hookIJNS0_9link_modeILNS0_14link_mode_typeE1EEEEED2Ev(ptr noundef nonnull align 8 dereferenceable(16) %this) unnamed_addr #5 comdat align 2 personality ptr @__gxx_personality_v0 {
entry:
  %hook.addr.i = alloca ptr, align 8
  %this.addr.i = alloca ptr, align 8
  %this.addr = alloca ptr, align 8
  store ptr %this, ptr %this.addr, align 8
  %this1 = load ptr, ptr %this.addr, align 8
  store ptr %this1, ptr %this.addr.i, align 8
  %this1.i = load ptr, ptr %this.addr.i, align 8
  store ptr %this1.i, ptr %hook.addr.i, align 8
  br label %_ZN5boost9intrusive12generic_hookILNS0_10algo_typesE0ENS0_16list_node_traitsIPvEENS0_10member_tagELNS0_14link_mode_typeE1ELNS0_14base_hook_typeE0EED2Ev.exit

terminate.lpad.i:                                 ; No predecessors!
  %0 = landingpad { ptr, i32 }
          catch ptr null
  %1 = extractvalue { ptr, i32 } %0, 0
  call void @__clang_call_terminate(ptr %1) #16
  unreachable

_ZN5boost9intrusive12generic_hookILNS0_10algo_typesE0ENS0_16list_node_traitsIPvEENS0_10member_tagELNS0_14link_mode_typeE1ELNS0_14base_hook_typeE0EED2Ev.exit: ; preds = %entry
  ret void
}

; Function Attrs: mustprogress nounwind uwtable
define linkonce_odr void @_ZN8proxygen8EndpointD2Ev(ptr noundef nonnull align 8 dereferenceable(49) %this) unnamed_addr #5 comdat align 2 {
entry:
  %this.addr = alloca ptr, align 8
  store ptr %this, ptr %this.addr, align 8
  %this1 = load ptr, ptr %this.addr, align 8
  %hostname_ = getelementptr inbounds %"class.proxygen::Endpoint", ptr %this1, i32 0, i32 0
  call void @_ZNSt7__cxx1112basic_stringIcSt11char_traitsIcESaIcEED1Ev(ptr noundef nonnull align 8 dereferenceable(32) %hostname_) #3
  ret void
}

; Function Attrs: mustprogress nounwind uwtable
define linkonce_odr noundef zeroext i1 @_ZN5boost9intrusive24circular_list_algorithmsINS0_16list_node_traitsIPvEEE6uniqueEPKNS0_9list_nodeIS3_EE(ptr noundef %this_node) #5 comdat align 2 personality ptr @__gxx_personality_v0 {
entry:
  %n.addr.i = alloca ptr, align 8
  %this_node.addr = alloca ptr, align 8
  %next = alloca ptr, align 8
  store ptr %this_node, ptr %this_node.addr, align 8
  %0 = load ptr, ptr %this_node.addr, align 8
  store ptr %0, ptr %n.addr.i, align 8
  %1 = load ptr, ptr %n.addr.i, align 8
  %2 = load ptr, ptr %1, align 8
  br label %invoke.cont

invoke.cont:                                      ; preds = %entry
  store ptr %2, ptr %next, align 8
  %3 = load ptr, ptr %next, align 8
  %tobool = icmp ne ptr %3, null
  br i1 %tobool, label %lor.rhs, label %lor.end

lor.rhs:                                          ; preds = %invoke.cont
  %4 = load ptr, ptr %next, align 8
  %5 = load ptr, ptr %this_node.addr, align 8
  %cmp = icmp eq ptr %4, %5
  br label %lor.end

lor.end:                                          ; preds = %lor.rhs, %invoke.cont
  %6 = phi i1 [ true, %invoke.cont ], [ %cmp, %lor.rhs ]
  ret i1 %6

terminate.lpad:                                   ; No predecessors!
  %7 = landingpad { ptr, i32 }
          catch ptr null
  %8 = extractvalue { ptr, i32 } %7, 0
  call void @__clang_call_terminate(ptr %8) #16
  unreachable
}

; Function Attrs: mustprogress nounwind uwtable
define linkonce_odr void @_ZN6google17LogMessageVoidifyanERSo(ptr noundef nonnull align 1 dereferenceable(1) %this, ptr noundef nonnull align 8 dereferenceable(8) %0) #5 comdat align 2 {
entry:
  %this.addr = alloca ptr, align 8
  %.addr = alloca ptr, align 8
  store ptr %this, ptr %this.addr, align 8
  store ptr %0, ptr %.addr, align 8
  ret void
}

; Function Attrs: mustprogress nounwind uwtable
define linkonce_odr void @_ZN6google17LogMessageVoidifyC2Ev(ptr noundef nonnull align 1 dereferenceable(1) %this) unnamed_addr #5 comdat align 2 {
entry:
  %this.addr = alloca ptr, align 8
  store ptr %this, ptr %this.addr, align 8
  ret void
}

; Function Attrs: mustprogress nounwind uwtable
define void @_ZN8proxygen13SessionHolderD2Ev(ptr noundef nonnull align 8 dereferenceable(152) %this) unnamed_addr #5 align 2 personality ptr @__gxx_personality_v0 {
entry:
  %v.addr.i61 = alloca ptr, align 8
  %v.addr.i = alloca ptr, align 8
  %r.addr.i59 = alloca ptr, align 8
  %r.addr.i = alloca ptr, align 8
  %this.addr.i56 = alloca ptr, align 8
  %this.addr.i53 = alloca ptr, align 8
  %this.addr.i48 = alloca ptr, align 8
  %this.addr.i = alloca ptr, align 8
  %this.addr = alloca ptr, align 8
  %ref.tmp = alloca %"class.google::LogMessageVoidify", align 1
  %ref.tmp2 = alloca %"class.google::LogMessageFatal", align 8
  %cleanup.cond = alloca i1, align 1
  %ref.tmp13 = alloca %"class.google::LogMessageVoidify", align 1
  %ref.tmp15 = alloca %"class.google::LogMessageFatal", align 8
  %cleanup.cond17 = alloca i1, align 1
  %ref.tmp32 = alloca %"class.google::LogMessageVoidify", align 1
  %ref.tmp34 = alloca %"class.google::LogMessageFatal", align 8
  %cleanup.cond36 = alloca i1, align 1
  store ptr %this, ptr %this.addr, align 8
  %this1 = load ptr, ptr %this.addr, align 8
  store ptr getelementptr inbounds ({ [32 x ptr] }, ptr @_ZTVN8proxygen13SessionHolderE, i32 0, i32 0, i32 2), ptr %this1, align 8
  %state_ = getelementptr inbounds %"class.proxygen::SessionHolder", ptr %this1, i32 0, i32 8
  %0 = load i32, ptr %state_, align 8
  %cmp = icmp eq i32 %0, 0
  %lnot = xor i1 %cmp, true
  store i1 false, ptr %cleanup.cond, align 1
  br i1 %lnot, label %cond.false, label %cond.true

cond.true:                                        ; preds = %entry
  br label %cond.end

cond.false:                                       ; preds = %entry
  invoke void @_ZN6google17LogMessageVoidifyC2Ev(ptr noundef nonnull align 1 dereferenceable(1) %ref.tmp)
          to label %invoke.cont unwind label %terminate.lpad

invoke.cont:                                      ; preds = %cond.false
  invoke void @_ZN6google15LogMessageFatalC1EPKci(ptr noundef nonnull align 8 dereferenceable(96) %ref.tmp2, ptr noundef @.str, i32 noundef 38)
          to label %invoke.cont3 unwind label %terminate.lpad

invoke.cont3:                                     ; preds = %invoke.cont
  store i1 true, ptr %cleanup.cond, align 1
  %call = invoke noundef nonnull align 8 dereferenceable(8) ptr @_ZN6google10LogMessage6streamEv(ptr noundef nonnull align 8 dereferenceable(96) %ref.tmp2)
          to label %invoke.cont4 unwind label %terminate.lpad

invoke.cont4:                                     ; preds = %invoke.cont3
  %call6 = invoke noundef nonnull align 8 dereferenceable(8) ptr @_ZStlsISt11char_traitsIcEERSt13basic_ostreamIcT_ES5_PKc(ptr noundef nonnull align 8 dereferenceable(8) %call, ptr noundef @.str.3)
          to label %invoke.cont5 unwind label %terminate.lpad

invoke.cont5:                                     ; preds = %invoke.cont4
  invoke void @_ZN6google17LogMessageVoidifyanERSo(ptr noundef nonnull align 1 dereferenceable(1) %ref.tmp, ptr noundef nonnull align 8 dereferenceable(8) %call6)
          to label %invoke.cont7 unwind label %terminate.lpad

invoke.cont7:                                     ; preds = %invoke.cont5
  br label %cond.end

cond.end:                                         ; preds = %invoke.cont7, %cond.true
  %cleanup.is_active = load i1, ptr %cleanup.cond, align 1
  br i1 %cleanup.is_active, label %cleanup.action, label %cleanup.done

cleanup.action:                                   ; preds = %cond.end
  call void @_ZN6google15LogMessageFatalD1Ev(ptr noundef nonnull align 8 dereferenceable(96) %ref.tmp2) #16
  unreachable

1:                                                ; No predecessors!
  br label %cleanup.done

cleanup.done:                                     ; preds = %1, %cond.end
  %listHook = getelementptr inbounds %"class.proxygen::SessionHolder", ptr %this1, i32 0, i32 1
  store ptr %listHook, ptr %this.addr.i48, align 8
  %this1.i49 = load ptr, ptr %this.addr.i48, align 8
  store ptr %this1.i49, ptr %this.addr.i53, align 8
  %this1.i54 = load ptr, ptr %this.addr.i53, align 8
  store ptr %this1.i54, ptr %r.addr.i59, align 8
  %2 = load ptr, ptr %r.addr.i59, align 8
  store ptr %2, ptr %v.addr.i, align 8
  %3 = load ptr, ptr %v.addr.i, align 8
  %call2.i51 = call noundef zeroext i1 @_ZN5boost9intrusive24circular_list_algorithmsINS0_16list_node_traitsIPvEEE6uniqueEPKNS0_9list_nodeIS3_EE(ptr noundef %3) #3
  %lnot.i52 = xor i1 %call2.i51, true
  %lnot9 = xor i1 %lnot.i52, true
  %lnot10 = xor i1 %lnot9, true
  store i1 false, ptr %cleanup.cond17, align 1
  br i1 %lnot10, label %cond.false12, label %cond.true11

cond.true11:                                      ; preds = %cleanup.done
  br label %cond.end23

cond.false12:                                     ; preds = %cleanup.done
  invoke void @_ZN6google17LogMessageVoidifyC2Ev(ptr noundef nonnull align 1 dereferenceable(1) %ref.tmp13)
          to label %invoke.cont14 unwind label %terminate.lpad

invoke.cont14:                                    ; preds = %cond.false12
  invoke void @_ZN6google15LogMessageFatalC1EPKci(ptr noundef nonnull align 8 dereferenceable(96) %ref.tmp15, ptr noundef @.str, i32 noundef 39)
          to label %invoke.cont16 unwind label %terminate.lpad

invoke.cont16:                                    ; preds = %invoke.cont14
  store i1 true, ptr %cleanup.cond17, align 1
  %call19 = invoke noundef nonnull align 8 dereferenceable(8) ptr @_ZN6google10LogMessage6streamEv(ptr noundef nonnull align 8 dereferenceable(96) %ref.tmp15)
          to label %invoke.cont18 unwind label %terminate.lpad

invoke.cont18:                                    ; preds = %invoke.cont16
  %call21 = invoke noundef nonnull align 8 dereferenceable(8) ptr @_ZStlsISt11char_traitsIcEERSt13basic_ostreamIcT_ES5_PKc(ptr noundef nonnull align 8 dereferenceable(8) %call19, ptr noundef @.str.4)
          to label %invoke.cont20 unwind label %terminate.lpad

invoke.cont20:                                    ; preds = %invoke.cont18
  invoke void @_ZN6google17LogMessageVoidifyanERSo(ptr noundef nonnull align 1 dereferenceable(1) %ref.tmp13, ptr noundef nonnull align 8 dereferenceable(8) %call21)
          to label %invoke.cont22 unwind label %terminate.lpad

invoke.cont22:                                    ; preds = %invoke.cont20
  br label %cond.end23

cond.end23:                                       ; preds = %invoke.cont22, %cond.true11
  %cleanup.is_active24 = load i1, ptr %cleanup.cond17, align 1
  br i1 %cleanup.is_active24, label %cleanup.action25, label %cleanup.done26

cleanup.action25:                                 ; preds = %cond.end23
  call void @_ZN6google15LogMessageFatalD1Ev(ptr noundef nonnull align 8 dereferenceable(96) %ref.tmp15) #16
  unreachable

4:                                                ; No predecessors!
  br label %cleanup.done26

cleanup.done26:                                   ; preds = %4, %cond.end23
  %secondaryListHook = getelementptr inbounds %"class.proxygen::SessionHolder", ptr %this1, i32 0, i32 2
  store ptr %secondaryListHook, ptr %this.addr.i, align 8
  %this1.i = load ptr, ptr %this.addr.i, align 8
  store ptr %this1.i, ptr %this.addr.i56, align 8
  %this1.i57 = load ptr, ptr %this.addr.i56, align 8
  store ptr %this1.i57, ptr %r.addr.i, align 8
  %5 = load ptr, ptr %r.addr.i, align 8
  store ptr %5, ptr %v.addr.i61, align 8
  %6 = load ptr, ptr %v.addr.i61, align 8
  %call2.i = call noundef zeroext i1 @_ZN5boost9intrusive24circular_list_algorithmsINS0_16list_node_traitsIPvEEE6uniqueEPKNS0_9list_nodeIS3_EE(ptr noundef %6) #3
  %lnot.i = xor i1 %call2.i, true
  %lnot28 = xor i1 %lnot.i, true
  %lnot29 = xor i1 %lnot28, true
  store i1 false, ptr %cleanup.cond36, align 1
  br i1 %lnot29, label %cond.false31, label %cond.true30

cond.true30:                                      ; preds = %cleanup.done26
  br label %cond.end42

cond.false31:                                     ; preds = %cleanup.done26
  invoke void @_ZN6google17LogMessageVoidifyC2Ev(ptr noundef nonnull align 1 dereferenceable(1) %ref.tmp32)
          to label %invoke.cont33 unwind label %terminate.lpad

invoke.cont33:                                    ; preds = %cond.false31
  invoke void @_ZN6google15LogMessageFatalC1EPKci(ptr noundef nonnull align 8 dereferenceable(96) %ref.tmp34, ptr noundef @.str, i32 noundef 40)
          to label %invoke.cont35 unwind label %terminate.lpad

invoke.cont35:                                    ; preds = %invoke.cont33
  store i1 true, ptr %cleanup.cond36, align 1
  %call38 = invoke noundef nonnull align 8 dereferenceable(8) ptr @_ZN6google10LogMessage6streamEv(ptr noundef nonnull align 8 dereferenceable(96) %ref.tmp34)
          to label %invoke.cont37 unwind label %terminate.lpad

invoke.cont37:                                    ; preds = %invoke.cont35
  %call40 = invoke noundef nonnull align 8 dereferenceable(8) ptr @_ZStlsISt11char_traitsIcEERSt13basic_ostreamIcT_ES5_PKc(ptr noundef nonnull align 8 dereferenceable(8) %call38, ptr noundef @.str.5)
          to label %invoke.cont39 unwind label %terminate.lpad

invoke.cont39:                                    ; preds = %invoke.cont37
  invoke void @_ZN6google17LogMessageVoidifyanERSo(ptr noundef nonnull align 1 dereferenceable(1) %ref.tmp32, ptr noundef nonnull align 8 dereferenceable(8) %call40)
          to label %invoke.cont41 unwind label %terminate.lpad

invoke.cont41:                                    ; preds = %invoke.cont39
  br label %cond.end42

cond.end42:                                       ; preds = %invoke.cont41, %cond.true30
  %cleanup.is_active43 = load i1, ptr %cleanup.cond36, align 1
  br i1 %cleanup.is_active43, label %cleanup.action44, label %cleanup.done45

cleanup.action44:                                 ; preds = %cond.end42
  call void @_ZN6google15LogMessageFatalD1Ev(ptr noundef nonnull align 8 dereferenceable(96) %ref.tmp34) #16
  unreachable

7:                                                ; No predecessors!
  br label %cleanup.done45

cleanup.done45:                                   ; preds = %7, %cond.end42
  %endpoint_ = getelementptr inbounds %"class.proxygen::SessionHolder", ptr %this1, i32 0, i32 10
  call void @_ZN8proxygen8EndpointD2Ev(ptr noundef nonnull align 8 dereferenceable(49) %endpoint_) #3
  %secondaryListHook46 = getelementptr inbounds %"class.proxygen::SessionHolder", ptr %this1, i32 0, i32 2
  call void @_ZN5boost9intrusive16list_member_hookIJNS0_9link_modeILNS0_14link_mode_typeE1EEEEED2Ev(ptr noundef nonnull align 8 dereferenceable(16) %secondaryListHook46) #3
  %listHook47 = getelementptr inbounds %"class.proxygen::SessionHolder", ptr %this1, i32 0, i32 1
  call void @_ZN5boost9intrusive16list_member_hookIJNS0_9link_modeILNS0_14link_mode_typeE1EEEEED2Ev(ptr noundef nonnull align 8 dereferenceable(16) %listHook47) #3
  call void @_ZN8proxygen15HTTPSessionBase12InfoCallbackD2Ev(ptr noundef nonnull align 8 dereferenceable(8) %this1) #3
  ret void

terminate.lpad:                                   ; preds = %invoke.cont39, %invoke.cont37, %invoke.cont35, %invoke.cont33, %cond.false31, %invoke.cont20, %invoke.cont18, %invoke.cont16, %invoke.cont14, %cond.false12, %invoke.cont5, %invoke.cont4, %invoke.cont3, %invoke.cont, %cond.false
  %8 = landingpad { ptr, i32 }
          catch ptr null
  %9 = extractvalue { ptr, i32 } %8, 0
  call void @__clang_call_terminate(ptr %9) #16
  unreachable
}