; Function Attrs: mustprogress nounwind uwtable
define void @_ZN8proxygen13SessionHolderD2Ev(ptr noundef nonnull align 8 dereferenceable(152) %this) unnamed_addr #4 align 2 personality ptr @__gxx_personality_v0 {
entry:
  %ref.tmp2 = alloca %"class.google::LogMessageFatal", align 8
  %ref.tmp15 = alloca %"class.google::LogMessageFatal", align 8
  %ref.tmp34 = alloca %"class.google::LogMessageFatal", align 8
  store ptr getelementptr inbounds ({ [32 x ptr] }, ptr @_ZTVN8proxygen13SessionHolderE, i64 0, i32 0, i64 2), ptr %this, align 8
  %state_ = getelementptr inbounds i8, ptr %this, i64 80
  %0 = load i32, ptr %state_, align 8
  %cmp.not.not = icmp eq i32 %0, 0
  br i1 %cmp.not.not, label %cleanup.done, label %cond.false

cond.false:                                       ; preds = %entry
  invoke void @_ZN6google15LogMessageFatalC1EPKci(ptr noundef nonnull align 8 dereferenceable(96) %ref.tmp2, ptr noundef nonnull @.str, i32 noundef 38)
          to label %invoke.cont3 unwind label %terminate.lpad

invoke.cont3:                                     ; preds = %cond.false
  %call = invoke noundef nonnull align 8 dereferenceable(8) ptr @_ZN6google10LogMessage6streamEv(ptr noundef nonnull align 8 dereferenceable(96) %ref.tmp2)
          to label %invoke.cont4 unwind label %terminate.lpad

invoke.cont4:                                     ; preds = %invoke.cont3
  %call6 = invoke noundef nonnull align 8 dereferenceable(8) ptr @_ZStlsISt11char_traitsIcEERSt13basic_ostreamIcT_ES5_PKc(ptr noundef nonnull align 8 dereferenceable(8) %call, ptr noundef nonnull @.str.3)
          to label %cleanup.action unwind label %terminate.lpad

cleanup.action:                                   ; preds = %invoke.cont4
  call void @_ZN6google15LogMessageFatalD1Ev(ptr noundef nonnull align 8 dereferenceable(96) %ref.tmp2) #23
  unreachable

cleanup.done:                                     ; preds = %entry
  %listHook = getelementptr inbounds i8, ptr %this, i64 8
  %1 = load ptr, ptr %listHook, align 8
  %tobool.not.i = icmp eq ptr %1, null
  %cmp.i = icmp eq ptr %1, %listHook
  %2 = or i1 %tobool.not.i, %cmp.i
  br i1 %2, label %cleanup.done26, label %cond.false12

cond.false12:                                     ; preds = %cleanup.done
  invoke void @_ZN6google15LogMessageFatalC1EPKci(ptr noundef nonnull align 8 dereferenceable(96) %ref.tmp15, ptr noundef nonnull @.str, i32 noundef 39)
          to label %invoke.cont16 unwind label %terminate.lpad

invoke.cont16:                                    ; preds = %cond.false12
  %call19 = invoke noundef nonnull align 8 dereferenceable(8) ptr @_ZN6google10LogMessage6streamEv(ptr noundef nonnull align 8 dereferenceable(96) %ref.tmp15)
          to label %invoke.cont18 unwind label %terminate.lpad

invoke.cont18:                                    ; preds = %invoke.cont16
  %call21 = invoke noundef nonnull align 8 dereferenceable(8) ptr @_ZStlsISt11char_traitsIcEERSt13basic_ostreamIcT_ES5_PKc(ptr noundef nonnull align 8 dereferenceable(8) %call19, ptr noundef nonnull @.str.4)
          to label %cleanup.action25 unwind label %terminate.lpad

cleanup.action25:                                 ; preds = %invoke.cont18
  call void @_ZN6google15LogMessageFatalD1Ev(ptr noundef nonnull align 8 dereferenceable(96) %ref.tmp15) #23
  unreachable

cleanup.done26:                                   ; preds = %cleanup.done
  %secondaryListHook = getelementptr inbounds i8, ptr %this, i64 24
  %3 = load ptr, ptr %secondaryListHook, align 8
  %tobool.not.i1 = icmp eq ptr %3, null
  %cmp.i2 = icmp eq ptr %3, %secondaryListHook
  %4 = or i1 %tobool.not.i1, %cmp.i2
  br i1 %4, label %cleanup.done45, label %cond.false31

cond.false31:                                     ; preds = %cleanup.done26
  invoke void @_ZN6google15LogMessageFatalC1EPKci(ptr noundef nonnull align 8 dereferenceable(96) %ref.tmp34, ptr noundef nonnull @.str, i32 noundef 40)
          to label %invoke.cont35 unwind label %terminate.lpad

invoke.cont35:                                    ; preds = %cond.false31
  %call38 = invoke noundef nonnull align 8 dereferenceable(8) ptr @_ZN6google10LogMessage6streamEv(ptr noundef nonnull align 8 dereferenceable(96) %ref.tmp34)
          to label %invoke.cont37 unwind label %terminate.lpad

invoke.cont37:                                    ; preds = %invoke.cont35
  %call40 = invoke noundef nonnull align 8 dereferenceable(8) ptr @_ZStlsISt11char_traitsIcEERSt13basic_ostreamIcT_ES5_PKc(ptr noundef nonnull align 8 dereferenceable(8) %call38, ptr noundef nonnull @.str.5)
          to label %cleanup.action44 unwind label %terminate.lpad

cleanup.action44:                                 ; preds = %invoke.cont37
  call void @_ZN6google15LogMessageFatalD1Ev(ptr noundef nonnull align 8 dereferenceable(96) %ref.tmp34) #23
  unreachable

cleanup.done45:                                   ; preds = %cleanup.done26
  %endpoint_ = getelementptr inbounds i8, ptr %this, i64 88
  tail call void @_ZNSt7__cxx1112basic_stringIcSt11char_traitsIcESaIcEED1Ev(ptr noundef nonnull align 8 dereferenceable(32) %endpoint_) #21
  ret void

terminate.lpad:                                   ; preds = %invoke.cont37, %invoke.cont35, %cond.false31, %invoke.cont18, %invoke.cont16, %cond.false12, %invoke.cont4, %invoke.cont3, %cond.false
  %5 = landingpad { ptr, i32 }
          catch ptr null
  %6 = extractvalue { ptr, i32 } %5, 0
  call void @__clang_call_terminate(ptr %6) #23
  unreachable
}